; Function Attrs: mustprogress uwtable
define hidden noundef nonnull align 8 dereferenceable(16) ptr @_ZN2cv15highgui_backend19getCurrentUIBackendEv() local_unnamed_addr #3 personality ptr @__gxx_personality_v0 {
  %1 = load atomic i8, ptr @_ZGVZN2cv15highgui_backend19getCurrentUIBackendEvE18g_currentUIBackend acquire, align 8
  %2 = icmp eq i8 %1, 0
  br i1 %2, label %3, label %8, !prof !3

3:                                                ; preds = %0
  %4 = tail call i32 @__cxa_guard_acquire(ptr nonnull @_ZGVZN2cv15highgui_backend19getCurrentUIBackendEvE18g_currentUIBackend) #30
  %.not = icmp eq i32 %4, 0
  br i1 %.not, label %8, label %5

5:                                                ; preds = %3
  invoke fastcc void @_ZN2cv15highgui_backendL22createDefaultUIBackendEv()
          to label %6 unwind label %9

6:                                                ; preds = %5
  %7 = tail call i32 @__cxa_atexit(ptr nonnull @_ZNSt12__shared_ptrIN2cv15highgui_backend9UIBackendELN9__gnu_cxx12_Lock_policyE2EED2Ev, ptr nonnull @_ZZN2cv15highgui_backend19getCurrentUIBackendEvE18g_currentUIBackend, ptr nonnull @__dso_handle) #30
  tail call void @__cxa_guard_release(ptr nonnull @_ZGVZN2cv15highgui_backend19getCurrentUIBackendEvE18g_currentUIBackend) #30
  br label %8

8:                                                ; preds = %6, %3, %0
  ret ptr @_ZZN2cv15highgui_backend19getCurrentUIBackendEvE18g_currentUIBackend

9:                                                ; preds = %5
  %10 = landingpad { ptr, i32 }
          cleanup
  tail call void @__cxa_guard_abort(ptr nonnull @_ZGVZN2cv15highgui_backend19getCurrentUIBackendEvE18g_currentUIBackend) #30
  resume { ptr, i32 } %10
}